target datalayout = "e-m:e-p270:32:32-p271:32:32-p272:64:64-i64:64-i128:128-f80:128-n8:16:32:64-S128"
target triple = "x86_64-pc-linux-gnu"

%struct._zval_struct = type { %union._zend_value, %union.anon, %union.anon.2 }
%union._zend_value = type { i64 }
%union.anon = type { i32 }
%union.anon.2 = type { i32 }
%struct.php_stream_sqlite3_data = type { ptr, i64, i64, i32 }
%struct._php_stream = type { ptr, ptr, %struct._php_stream_filter_chain, %struct._php_stream_filter_chain, ptr, ptr, %struct._zval_struct, i16, [16 x i8], i32, ptr, ptr, ptr, ptr, i64, ptr, i64, i64, i64, i64, ptr }
%struct._php_stream_filter_chain = type { ptr, ptr, ptr }
%struct._php_stream_statbuf = type { %struct.stat }
%struct.stat = type { i64, i64, i64, i32, i32, i32, i32, i64, i64, i64, i64, %struct.timespec, %struct.timespec, %struct.timespec, [3 x i64] }
%struct.timespec = type { i64, i64 }

; Function Attrs: nounwind uwtable
define internal i32 @php_sqlite3_stream_stat(ptr noundef %0, ptr noundef %1) #0 {
  %3 = alloca ptr, align 8
  %4 = alloca ptr, align 8
  %5 = alloca ptr, align 8
  store ptr %0, ptr %3, align 8, !tbaa !135
  store ptr %1, ptr %4, align 8, !tbaa !214
  call void @llvm.lifetime.start.p0(i64 8, ptr %5) #15
  %6 = load ptr, ptr %3, align 8, !tbaa !135
  %7 = getelementptr inbounds nuw %struct._php_stream, ptr %6, i32 0, i32 1
  %8 = load ptr, ptr %7, align 8, !tbaa !213
  store ptr %8, ptr %5, align 8, !tbaa !70
  %9 = load ptr, ptr %5, align 8, !tbaa !70
  %10 = getelementptr inbounds nuw %struct.php_stream_sqlite3_data, ptr %9, i32 0, i32 2
  %11 = load i64, ptr %10, align 8, !tbaa !134
  %12 = load ptr, ptr %4, align 8, !tbaa !214
  %13 = getelementptr inbounds nuw %struct._php_stream_statbuf, ptr %12, i32 0, i32 0
  %14 = getelementptr inbounds nuw %struct.stat, ptr %13, i32 0, i32 8
  store i64 %11, ptr %14, align 8, !tbaa !216
  call void @llvm.lifetime.end.p0(i64 8, ptr %5) #15
  ret i32 0
}